target datalayout = "e-m:e-p270:32:32-p271:32:32-p272:64:64-i64:64-i128:128-f80:128-n8:16:32:64-S128"
target triple = "x86_64-pc-linux-gnu"

%struct.mbedtls_ssl_config = type { i32, i32, i8, i8, i8, i8, i8, i8, i8, i8, i8, i8, i16, i8, i8, i8, ptr, i32, ptr, ptr, ptr, ptr, ptr, ptr, ptr, ptr, ptr, ptr, ptr, ptr, ptr, ptr, ptr, ptr, ptr, ptr, ptr, i64, ptr, ptr, ptr, ptr, ptr, ptr, ptr, ptr, %struct.mbedtls_mpi, %struct.mbedtls_mpi, ptr, i64, ptr, i64, ptr, i32, i32, i32, i32, [8 x i8], i32, i32, %union.mbedtls_ssl_user_data_t, ptr, ptr }
%struct.mbedtls_mpi = type { ptr, i16, i16 }
%union.mbedtls_ssl_user_data_t = type { i64 }
%struct.mbedtls_ssl_context = type { ptr, i32, i32, i32, i32, i32, ptr, ptr, ptr, ptr, ptr, ptr, ptr, ptr, ptr, ptr, ptr, ptr, ptr, ptr, ptr, ptr, ptr, ptr, ptr, ptr, ptr, ptr, ptr, ptr, ptr, ptr, ptr, i32, i64, i64, i16, i64, i64, i64, i64, i32, i32, i8, i8, i32, i8, ptr, ptr, ptr, ptr, ptr, ptr, ptr, i32, i64, i64, [8 x i8], i16, ptr, ptr, ptr, i64, i32, i64, [12 x i8], [12 x i8], [32 x i8], i8, i8, ptr, ptr, %union.mbedtls_ssl_user_data_t }
%struct.mbedtls_md_context_t = type { ptr, ptr, ptr }
%struct.mbedtls_ssl_session = type { i8, i8, i8, i32, i64, i32, i64, [32 x i8], [48 x i8], ptr, i32, ptr, i64, i32, i64, i32, i8, i8, [48 x i8], ptr, i64, i32, %struct.mbedtls_ssl_tls13_application_secrets }
%struct.mbedtls_ssl_tls13_application_secrets = type { [64 x i8], [64 x i8], [64 x i8], [64 x i8] }
%struct.mbedtls_ssl_ciphersuite_t = type { i32, ptr, i8, i8, i8, i8, i16, i16 }
%struct.mbedtls_ssl_handshake_params = type { i8, i8, i8, i8, i8, i32, i8, i8, i8, i8, ptr, ptr, ptr, ptr, ptr, i8, i8, i8, i8, i16, i16, [20 x i16], ptr, ptr, %struct.mbedtls_dhm_context, %struct.mbedtls_ecdh_context, i16, i64, i32, i8, [1024 x i8], i64, ptr, ptr, i64, i16, ptr, ptr, ptr, ptr, %struct.anon, ptr, i16, i8, i32, i32, i32, ptr, ptr, ptr, i32, ptr, [8 x i8], i8, [32 x i8], i8, i16, %struct.mbedtls_md_context_t, %struct.mbedtls_md_context_t, i16, i8, %union.anon.1, [64 x i8], [1076 x i8], i64, i32, i32, i8, ptr, ptr, %union.anon.4, %struct.mbedtls_ssl_tls13_handshake_secrets, ptr, i64, ptr }
%struct.mbedtls_dhm_context = type { %struct.mbedtls_mpi, %struct.mbedtls_mpi, %struct.mbedtls_mpi, %struct.mbedtls_mpi, %struct.mbedtls_mpi, %struct.mbedtls_mpi, %struct.mbedtls_mpi, %struct.mbedtls_mpi, %struct.mbedtls_mpi, %struct.mbedtls_mpi }
%struct.mbedtls_ecdh_context = type { i8, i32, i32, %union.anon }
%union.anon = type { %struct.mbedtls_ecdh_context_mbed }
%struct.mbedtls_ecdh_context_mbed = type { %struct.mbedtls_ecp_group, %struct.mbedtls_mpi, %struct.mbedtls_ecp_point, %struct.mbedtls_ecp_point, %struct.mbedtls_mpi }
%struct.mbedtls_ecp_group = type { i32, %struct.mbedtls_mpi, %struct.mbedtls_mpi, %struct.mbedtls_mpi, %struct.mbedtls_ecp_point, %struct.mbedtls_mpi, i64, i64, i32, ptr, ptr, ptr, ptr, ptr, i64 }
%struct.mbedtls_ecp_point = type { %struct.mbedtls_mpi, %struct.mbedtls_mpi, %struct.mbedtls_mpi }
%struct.anon = type { i64, i8, [4 x %struct.mbedtls_ssl_hs_buffer], %struct.anon.0 }
%struct.mbedtls_ssl_hs_buffer = type { i8, ptr, i64 }
%struct.anon.0 = type { ptr, i64, i32 }
%union.anon.1 = type { %struct.anon.2 }
%struct.anon.2 = type { i8, [64 x i8], i64 }
%union.anon.4 = type { [64 x i8] }
%struct.mbedtls_ssl_tls13_handshake_secrets = type { [64 x i8], [64 x i8] }

@.str = private unnamed_addr constant [121 x i8] c"generated/home/dtcxzyw/WorkSpace/Projects/compilers/llvm-opt-benchmark/bench/lief/bench_build/mbed_src/library/ssl_tls.c\00", align 1
@.str.14 = private unnamed_addr constant [39 x i8] c"%d is not a valid TLS 1.3 ciphersuite.\00", align 1

; Function Attrs: nounwind uwtable
define hidden i32 @mbedtls_ssl_conf_has_static_psk(ptr noundef %0) #0 {
  %2 = alloca i32, align 4
  %3 = alloca ptr, align 8
  store ptr %0, ptr %3, align 8, !tbaa !3
  %4 = load ptr, ptr %3, align 8, !tbaa !3
  %5 = getelementptr inbounds nuw %struct.mbedtls_ssl_config, ptr %4, i32 0, i32 50
  %6 = load ptr, ptr %5, align 8, !tbaa !205
  %7 = icmp eq ptr %6, null
  br i1 %7, label %13, label %8

8:                                                ; preds = %1
  %9 = load ptr, ptr %3, align 8, !tbaa !3
  %10 = getelementptr inbounds nuw %struct.mbedtls_ssl_config, ptr %9, i32 0, i32 51
  %11 = load i64, ptr %10, align 8, !tbaa !206
  %12 = icmp eq i64 %11, 0
  br i1 %12, label %13, label %14

13:                                               ; preds = %8, %1
  store i32 0, ptr %2, align 4
  br label %26

14:                                               ; preds = %8
  %15 = load ptr, ptr %3, align 8, !tbaa !3
  %16 = getelementptr inbounds nuw %struct.mbedtls_ssl_config, ptr %15, i32 0, i32 48
  %17 = load ptr, ptr %16, align 8, !tbaa !207
  %18 = icmp ne ptr %17, null
  br i1 %18, label %19, label %25

19:                                               ; preds = %14
  %20 = load ptr, ptr %3, align 8, !tbaa !3
  %21 = getelementptr inbounds nuw %struct.mbedtls_ssl_config, ptr %20, i32 0, i32 49
  %22 = load i64, ptr %21, align 8, !tbaa !208
  %23 = icmp ne i64 %22, 0
  br i1 %23, label %24, label %25

24:                                               ; preds = %19
  store i32 1, ptr %2, align 4
  br label %26

25:                                               ; preds = %19, %14
  store i32 0, ptr %2, align 4
  br label %26

26:                                               ; preds = %25, %24, %13
  %27 = load i32, ptr %2, align 4
  ret i32 %27
}

; Function Attrs: nounwind uwtable
define hidden i32 @mbedtls_ssl_validate_ciphersuite(ptr noundef %0, ptr noundef %1, i32 noundef %2, i32 noundef %3) #0 {
  %5 = alloca i32, align 4
  %6 = alloca ptr, align 8
  %7 = alloca ptr, align 8
  %8 = alloca i32, align 4
  %9 = alloca i32, align 4
  store ptr %0, ptr %6, align 8, !tbaa !27
  store ptr %1, ptr %7, align 8, !tbaa !74
  store i32 %2, ptr %8, align 4, !tbaa !10
  store i32 %3, ptr %9, align 4, !tbaa !10
  %10 = load ptr, ptr %7, align 8, !tbaa !74
  %11 = icmp eq ptr %10, null
  br i1 %11, label %12, label %13

12:                                               ; preds = %4
  store i32 -1, ptr %5, align 4
  br label %40

13:                                               ; preds = %4
  %14 = load ptr, ptr %7, align 8, !tbaa !74
  %15 = getelementptr inbounds nuw %struct.mbedtls_ssl_ciphersuite_t, ptr %14, i32 0, i32 6
  %16 = load i16, ptr %15, align 4, !tbaa !177
  %17 = zext i16 %16 to i32
  %18 = load i32, ptr %9, align 4, !tbaa !10
  %19 = icmp ugt i32 %17, %18
  br i1 %19, label %27, label %20

20:                                               ; preds = %13
  %21 = load ptr, ptr %7, align 8, !tbaa !74
  %22 = getelementptr inbounds nuw %struct.mbedtls_ssl_ciphersuite_t, ptr %21, i32 0, i32 7
  %23 = load i16, ptr %22, align 2, !tbaa !178
  %24 = zext i16 %23 to i32
  %25 = load i32, ptr %8, align 4, !tbaa !10
  %26 = icmp ult i32 %24, %25
  br i1 %26, label %27, label %28

27:                                               ; preds = %20, %13
  store i32 -1, ptr %5, align 4
  br label %40

28:                                               ; preds = %20
  %29 = load ptr, ptr %7, align 8, !tbaa !74
  %30 = call i32 @mbedtls_ssl_ciphersuite_uses_psk(ptr noundef %29)
  %31 = icmp ne i32 %30, 0
  br i1 %31, label %32, label %39

32:                                               ; preds = %28
  %33 = load ptr, ptr %6, align 8, !tbaa !27
  %34 = getelementptr inbounds nuw %struct.mbedtls_ssl_context, ptr %33, i32 0, i32 0
  %35 = load ptr, ptr %34, align 8, !tbaa !30
  %36 = call i32 @mbedtls_ssl_conf_has_static_psk(ptr noundef %35)
  %37 = icmp eq i32 %36, 0
  br i1 %37, label %38, label %39

38:                                               ; preds = %32
  store i32 -1, ptr %5, align 4
  br label %40

39:                                               ; preds = %32, %28
  store i32 0, ptr %5, align 4
  br label %40

40:                                               ; preds = %39, %38, %27, %12
  %41 = load i32, ptr %5, align 4
  ret i32 %41
}

; Function Attrs: nounwind uwtable
define hidden i32 @mbedtls_ssl_set_session(ptr noundef %0, ptr noundef %1) #0 {
  %3 = alloca i32, align 4
  %4 = alloca ptr, align 8
  %5 = alloca ptr, align 8
  %6 = alloca i32, align 4
  %7 = alloca i32, align 4
  %8 = alloca ptr, align 8
  store ptr %0, ptr %4, align 8, !tbaa !27
  store ptr %1, ptr %5, align 8, !tbaa !50
  call void @llvm.lifetime.start.p0(i64 4, ptr %6) #11
  store i32 -110, ptr %6, align 4, !tbaa !10
  %9 = load ptr, ptr %4, align 8, !tbaa !27
  %10 = icmp eq ptr %9, null
  br i1 %10, label %27, label %11

11:                                               ; preds = %2
  %12 = load ptr, ptr %5, align 8, !tbaa !50
  %13 = icmp eq ptr %12, null
  br i1 %13, label %27, label %14

14:                                               ; preds = %11
  %15 = load ptr, ptr %4, align 8, !tbaa !27
  %16 = getelementptr inbounds nuw %struct.mbedtls_ssl_context, ptr %15, i32 0, i32 15
  %17 = load ptr, ptr %16, align 8, !tbaa !105
  %18 = icmp eq ptr %17, null
  br i1 %18, label %27, label %19

19:                                               ; preds = %14
  %20 = load ptr, ptr %4, align 8, !tbaa !27
  %21 = getelementptr inbounds nuw %struct.mbedtls_ssl_context, ptr %20, i32 0, i32 0
  %22 = load ptr, ptr %21, align 8, !tbaa !30
  %23 = getelementptr inbounds nuw %struct.mbedtls_ssl_config, ptr %22, i32 0, i32 2
  %24 = load i8, ptr %23, align 8, !tbaa !110
  %25 = zext i8 %24 to i32
  %26 = icmp ne i32 %25, 0
  br i1 %26, label %27, label %28

27:                                               ; preds = %19, %14, %11, %2
  store i32 -28928, ptr %3, align 4
  store i32 1, ptr %7, align 4
  br label %74

28:                                               ; preds = %19
  %29 = load ptr, ptr %4, align 8, !tbaa !27
  %30 = getelementptr inbounds nuw %struct.mbedtls_ssl_context, ptr %29, i32 0, i32 16
  %31 = load ptr, ptr %30, align 8, !tbaa !78
  %32 = getelementptr inbounds nuw %struct.mbedtls_ssl_handshake_params, ptr %31, i32 0, i32 0
  %33 = load i8, ptr %32, align 8, !tbaa !174
  %34 = zext i8 %33 to i32
  %35 = icmp eq i32 %34, 1
  br i1 %35, label %36, label %37

36:                                               ; preds = %28
  store i32 -28800, ptr %3, align 4
  store i32 1, ptr %7, align 4
  br label %74

37:                                               ; preds = %28
  %38 = load ptr, ptr %5, align 8, !tbaa !50
  %39 = getelementptr inbounds nuw %struct.mbedtls_ssl_session, ptr %38, i32 0, i32 3
  %40 = load i32, ptr %39, align 4, !tbaa !175
  %41 = icmp eq i32 %40, 772
  br i1 %41, label %42, label %60

42:                                               ; preds = %37
  call void @llvm.lifetime.start.p0(i64 8, ptr %8) #11
  %43 = load ptr, ptr %5, align 8, !tbaa !50
  %44 = getelementptr inbounds nuw %struct.mbedtls_ssl_session, ptr %43, i32 0, i32 5
  %45 = load i32, ptr %44, align 8, !tbaa !176
  %46 = call ptr @mbedtls_ssl_ciphersuite_from_id(i32 noundef %45)
  store ptr %46, ptr %8, align 8, !tbaa !74
  %47 = load ptr, ptr %4, align 8, !tbaa !27
  %48 = load ptr, ptr %8, align 8, !tbaa !74
  %49 = call i32 @mbedtls_ssl_validate_ciphersuite(ptr noundef %47, ptr noundef %48, i32 noundef 772, i32 noundef 772)
  %50 = icmp ne i32 %49, 0
  br i1 %50, label %51, label %56

51:                                               ; preds = %42
  %52 = load ptr, ptr %4, align 8, !tbaa !27
  %53 = load ptr, ptr %5, align 8, !tbaa !50
  %54 = getelementptr inbounds nuw %struct.mbedtls_ssl_session, ptr %53, i32 0, i32 5
  %55 = load i32, ptr %54, align 8, !tbaa !176
  call void (ptr, i32, ptr, i32, ptr, ...) @mbedtls_debug_print_msg(ptr noundef %52, i32 noundef 4, ptr noundef @.str, i32 noundef 1748, ptr noundef @.str.14, i32 noundef %55)
  store i32 -28928, ptr %3, align 4
  store i32 1, ptr %7, align 4
  br label %57

56:                                               ; preds = %42
  store i32 0, ptr %7, align 4
  br label %57

57:                                               ; preds = %56, %51
  call void @llvm.lifetime.end.p0(i64 8, ptr %8) #11
  %58 = load i32, ptr %7, align 4
  switch i32 %58, label %74 [
    i32 0, label %59
  ]

59:                                               ; preds = %57
  br label %60

60:                                               ; preds = %59, %37
  %61 = load ptr, ptr %4, align 8, !tbaa !27
  %62 = getelementptr inbounds nuw %struct.mbedtls_ssl_context, ptr %61, i32 0, i32 15
  %63 = load ptr, ptr %62, align 8, !tbaa !105
  %64 = load ptr, ptr %5, align 8, !tbaa !50
  %65 = call i32 @mbedtls_ssl_session_copy(ptr noundef %63, ptr noundef %64)
  store i32 %65, ptr %6, align 4, !tbaa !10
  %66 = icmp ne i32 %65, 0
  br i1 %66, label %67, label %69

67:                                               ; preds = %60
  %68 = load i32, ptr %6, align 4, !tbaa !10
  store i32 %68, ptr %3, align 4
  store i32 1, ptr %7, align 4
  br label %74

69:                                               ; preds = %60
  %70 = load ptr, ptr %4, align 8, !tbaa !27
  %71 = getelementptr inbounds nuw %struct.mbedtls_ssl_context, ptr %70, i32 0, i32 16
  %72 = load ptr, ptr %71, align 8, !tbaa !78
  %73 = getelementptr inbounds nuw %struct.mbedtls_ssl_handshake_params, ptr %72, i32 0, i32 0
  store i8 1, ptr %73, align 8, !tbaa !174
  store i32 0, ptr %3, align 4
  store i32 1, ptr %7, align 4
  br label %74

74:                                               ; preds = %69, %67, %57, %36, %27
  call void @llvm.lifetime.end.p0(i64 4, ptr %6) #11
  %75 = load i32, ptr %3, align 4
  ret i32 %75
}