; Function Attrs: nounwind uwtable
define hidden i32 @mbedtls_ssl_set_session(ptr noundef %0, ptr noundef readonly %1) local_unnamed_addr #1 {
  %3 = icmp eq ptr %0, null
  %4 = icmp eq ptr %1, null
  %or.cond = or i1 %3, %4
  br i1 %or.cond, label %57, label %5

5:                                                ; preds = %2
  %6 = getelementptr inbounds nuw i8, ptr %0, i64 104
  %7 = load ptr, ptr %6, align 8, !tbaa !88
  %8 = icmp eq ptr %7, null
  br i1 %8, label %57, label %9

9:                                                ; preds = %5
  %10 = load ptr, ptr %0, align 8, !tbaa !23
  %11 = getelementptr inbounds nuw i8, ptr %10, i64 8
  %12 = load i8, ptr %11, align 8, !tbaa !94
  %.not = icmp eq i8 %12, 0
  br i1 %.not, label %13, label %57

13:                                               ; preds = %9
  %14 = getelementptr inbounds nuw i8, ptr %0, i64 112
  %15 = load ptr, ptr %14, align 8, !tbaa !70
  %16 = load i8, ptr %15, align 8, !tbaa !152
  %17 = icmp eq i8 %16, 1
  br i1 %17, label %57, label %18

18:                                               ; preds = %13
  %19 = getelementptr inbounds nuw i8, ptr %1, i64 4
  %20 = load i32, ptr %19, align 4, !tbaa !153
  %21 = icmp eq i32 %20, 772
  br i1 %21, label %22, label %.critedge

22:                                               ; preds = %18
  %23 = getelementptr inbounds nuw i8, ptr %1, i64 16
  %24 = load i32, ptr %23, align 8, !tbaa !154
  %25 = tail call ptr @mbedtls_ssl_ciphersuite_from_id(i32 noundef %24) #26
  %26 = icmp eq ptr %25, null
  br i1 %26, label %mbedtls_ssl_conf_has_static_psk.exit.thread.i, label %27

27:                                               ; preds = %22
  %28 = getelementptr inbounds nuw i8, ptr %25, i64 20
  %29 = load i16, ptr %28, align 4, !tbaa !155
  %30 = icmp ugt i16 %29, 772
  br i1 %30, label %mbedtls_ssl_conf_has_static_psk.exit.thread.i, label %31

31:                                               ; preds = %27
  %32 = getelementptr inbounds nuw i8, ptr %25, i64 22
  %33 = load i16, ptr %32, align 2, !tbaa !156
  %34 = icmp ult i16 %33, 772
  br i1 %34, label %mbedtls_ssl_conf_has_static_psk.exit.thread.i, label %35

35:                                               ; preds = %31
  %36 = tail call i32 @mbedtls_ssl_ciphersuite_uses_psk(ptr noundef nonnull %25) #26
  %.not.i = icmp eq i32 %36, 0
  br i1 %.not.i, label %.critedge, label %37

37:                                               ; preds = %35
  %38 = load ptr, ptr %0, align 8, !tbaa !23
  %39 = getelementptr inbounds nuw i8, ptr %38, i64 312
  %40 = load ptr, ptr %39, align 8, !tbaa !157
  %41 = icmp eq ptr %40, null
  br i1 %41, label %mbedtls_ssl_conf_has_static_psk.exit.thread.i, label %42

42:                                               ; preds = %37
  %43 = getelementptr inbounds nuw i8, ptr %38, i64 320
  %44 = load i64, ptr %43, align 8, !tbaa !158
  %45 = icmp eq i64 %44, 0
  br i1 %45, label %mbedtls_ssl_conf_has_static_psk.exit.thread.i, label %46

46:                                               ; preds = %42
  %47 = getelementptr inbounds nuw i8, ptr %38, i64 296
  %48 = load ptr, ptr %47, align 8, !tbaa !159
  %.not.i.i = icmp eq ptr %48, null
  br i1 %.not.i.i, label %mbedtls_ssl_conf_has_static_psk.exit.thread.i, label %49

49:                                               ; preds = %46
  %50 = getelementptr inbounds nuw i8, ptr %38, i64 304
  %51 = load i64, ptr %50, align 8, !tbaa !160
  %.not4.i.i = icmp eq i64 %51, 0
  br i1 %.not4.i.i, label %mbedtls_ssl_conf_has_static_psk.exit.thread.i, label %.critedge

mbedtls_ssl_conf_has_static_psk.exit.thread.i:    ; preds = %37, %42, %46, %49, %22, %31, %27
  %52 = load i32, ptr %23, align 8, !tbaa !154
  tail call void (ptr, i32, ptr, i32, ptr, ...) @mbedtls_debug_print_msg(ptr noundef nonnull %0, i32 noundef 4, ptr noundef nonnull @.str, i32 noundef 1748, ptr noundef nonnull @.str.14, i32 noundef %52) #26
  br label %57

.critedge:                                        ; preds = %49, %35, %18
  %53 = load ptr, ptr %6, align 8, !tbaa !88
  %54 = tail call i32 @mbedtls_ssl_session_copy(ptr noundef %53, ptr noundef nonnull %1)
  %.not22 = icmp eq i32 %54, 0
  br i1 %.not22, label %55, label %57

55:                                               ; preds = %.critedge
  %56 = load ptr, ptr %14, align 8, !tbaa !70
  store i8 1, ptr %56, align 8, !tbaa !152
  br label %57

57:                                               ; preds = %mbedtls_ssl_conf_has_static_psk.exit.thread.i, %.critedge, %13, %2, %5, %9, %55
  %.0 = phi i32 [ 0, %55 ], [ -28928, %mbedtls_ssl_conf_has_static_psk.exit.thread.i ], [ -28928, %9 ], [ -28928, %5 ], [ -28928, %2 ], [ -28800, %13 ], [ %54, %.critedge ]
  ret i32 %.0
}